(ipyUtils
NumChib
p0
(dp1
S'cov_NB'
p2
F-349.76569058466043
sS's_ratio_21'
p3
F0.084111575649010256
sS'numBkg'
p4
F1340.7027314122993
sS's_beta'
p5
F1.1216492877184554
sS'q0'
p6
F9.5
sS's_alpha'
p7
F0.27304979518985872
sS'numChib'
p8
F521.33583729406791
sS's_numChib1'
p9
F26.062142983494542
sS's_numChib2'
p10
F21.559590528359202
sS's_q0'
p11
F0.0
sS'cov_NR'
p12
F0.1037708355101517
sS'beta'
p13
F-8.2428532810041588e-05
sS'chiSquare'
p14
F0.92906120846214313
sS's_numBkg'
p15
F41.115906096660069
sS'ratio_21'
p16
F0.54027005570968223
sS'alpha'
p17
F0.19667728724408584
sS'corr_NB'
p18
F-0.28821184468932615
sS's_numChib'
p19
F29.515865016374562
sS'numChib1'
p20
F338.47041001771697
sS'numChib2'
p21
F182.86542727635091
sS'name'
p22
S'numChib_qValue_16_20'
p23
sb.