(ipyUtils
NumChib
p0
(dp1
S'cov_NB'
p2
F-4135.005069157869
sS's_ratio_21'
p3
F0.042390823593507876
sS'numBkg'
p4
F12866.623755597153
sS's_beta'
p5
F0.6547077054760555
sS'q0'
p6
F9.5
sS's_alpha'
p7
F0.2515973031973564
sS'numChib'
p8
F2952.6671637502222
sS's_numChib1'
p9
F69.314453138947513
sS's_numChib2'
p10
F61.703187388962426
sS's_q0'
p11
F0.0
sS'cov_NR'
p12
F0.37900362415363259
sS'beta'
p13
F-3.5779085075887243
sS'chiSquare'
p14
F1.2277492726148367
sS's_numBkg'
p15
F130.39020745310154
sS'ratio_21'
p16
F0.57791063294272893
sS'alpha'
p17
F2.0172296298764785
sS'corr_NB'
p18
F-0.37666696742995026
sS's_numChib'
p19
F84.192524982321174
sS'numChib1'
p20
F1871.2511989627935
sS'numChib2'
p21
F1081.4159647874285
sS'name'
p22
S'numChib_refit'
p23
sb.